target datalayout = "e-m:e-p270:32:32-p271:32:32-p272:64:64-i64:64-i128:128-f80:128-n8:16:32:64-S128"
target triple = "x86_64-pc-linux-gnu"

%"class.OpenSubdiv::v3_6_0::Sdc::Options" = type { i8, i8, i8, i8 }
%"class.OpenSubdiv::v3_6_0::Bfr::FaceTopology" = type { i32, %"class.OpenSubdiv::v3_6_0::Sdc::Options", i32, i32, i32, %"class.OpenSubdiv::v3_6_0::Bfr::MultiVertexTag", i8, %"class.OpenSubdiv::v3_6_0::Vtr::internal::StackBuffer" }
%"class.OpenSubdiv::v3_6_0::Bfr::MultiVertexTag" = type { %"class.OpenSubdiv::v3_6_0::Bfr::FeatureBits" }
%"class.OpenSubdiv::v3_6_0::Bfr::FeatureBits" = type { i16 }
%"class.OpenSubdiv::v3_6_0::Vtr::internal::StackBuffer" = type { ptr, i32, i32, [896 x i8], ptr }

; Function Attrs: mustprogress nounwind uwtable
define linkonce_odr void @_ZN10OpenSubdiv6v3_6_03Bfr11FeatureBits7SetBitsEt(ptr noundef nonnull align 2 dereferenceable(2) %0, i16 noundef zeroext %1) #3 comdat align 2 {
  %3 = alloca ptr, align 8
  %4 = alloca i16, align 2
  store ptr %0, ptr %3, align 8
  store i16 %1, ptr %4, align 2
  %5 = load ptr, ptr %3, align 8
  call void @llvm.memcpy.p0.p0.i64(ptr align 2 %5, ptr align 2 %4, i64 2, i1 false)
  ret void
}

; Function Attrs: mustprogress uwtable
define linkonce_odr void @_ZN10OpenSubdiv6v3_6_03Bfr11FeatureBits5ClearEv(ptr noundef nonnull align 2 dereferenceable(2) %0) #0 comdat align 2 {
  %2 = alloca ptr, align 8
  store ptr %0, ptr %2, align 8
  %3 = load ptr, ptr %2, align 8
  call void @_ZN10OpenSubdiv6v3_6_03Bfr11FeatureBits7SetBitsEt(ptr noundef nonnull align 2 dereferenceable(2) %3, i16 noundef zeroext 0)
  ret void
}

; Function Attrs: mustprogress uwtable
define void @_ZN10OpenSubdiv6v3_6_03Bfr12FaceTopology10InitializeEi(ptr noundef nonnull align 8 dereferenceable(944) %0, i32 noundef %1) #0 align 2 {
  %3 = alloca ptr, align 8
  %4 = alloca i32, align 4
  store ptr %0, ptr %3, align 8
  store i32 %1, ptr %4, align 4
  %5 = load ptr, ptr %3, align 8
  %6 = load i32, ptr %4, align 4
  %7 = getelementptr inbounds nuw %"class.OpenSubdiv::v3_6_0::Bfr::FaceTopology", ptr %5, i32 0, i32 2
  store i32 %6, ptr %7, align 8
  %8 = getelementptr inbounds nuw %"class.OpenSubdiv::v3_6_0::Bfr::FaceTopology", ptr %5, i32 0, i32 4
  store i32 0, ptr %8, align 8
  %9 = getelementptr inbounds nuw %"class.OpenSubdiv::v3_6_0::Bfr::FaceTopology", ptr %5, i32 0, i32 5
  call void @_ZN10OpenSubdiv6v3_6_03Bfr11FeatureBits5ClearEv(ptr noundef nonnull align 2 dereferenceable(2) %9)
  %10 = getelementptr inbounds nuw %"class.OpenSubdiv::v3_6_0::Bfr::FaceTopology", ptr %5, i32 0, i32 6
  %11 = load i8, ptr %10, align 2
  %12 = and i8 %11, -2
  %13 = or i8 %12, 1
  store i8 %13, ptr %10, align 2
  %14 = getelementptr inbounds nuw %"class.OpenSubdiv::v3_6_0::Bfr::FaceTopology", ptr %5, i32 0, i32 6
  %15 = load i8, ptr %14, align 2
  %16 = and i8 %15, -3
  %17 = or i8 %16, 0
  store i8 %17, ptr %14, align 2
  %18 = getelementptr inbounds nuw %"class.OpenSubdiv::v3_6_0::Bfr::FaceTopology", ptr %5, i32 0, i32 7
  %19 = load i32, ptr %4, align 4
  call void @_ZN10OpenSubdiv6v3_6_03Vtr8internal11StackBufferINS0_3Bfr10FaceVertexELj4ELb0EE7SetSizeEj(ptr noundef nonnull align 8 dereferenceable(920) %18, i32 noundef %19)
  ret void
}