; Function Attrs: mustprogress uwtable
define void @_ZN10OpenSubdiv6v3_6_03Bfr12FaceTopology10InitializeEi(ptr noundef nonnull align 8 dereferenceable(944) initializes((8, 12), (16, 22)) %0, i32 noundef %1) local_unnamed_addr #0 align 2 {
  %3 = getelementptr inbounds nuw i8, ptr %0, i64 8
  store i32 %1, ptr %3, align 8
  %4 = getelementptr inbounds nuw i8, ptr %0, i64 16
  store i32 0, ptr %4, align 8
  %5 = getelementptr inbounds nuw i8, ptr %0, i64 20
  store i16 0, ptr %5, align 4
  %6 = getelementptr inbounds nuw i8, ptr %0, i64 22
  %7 = load i8, ptr %6, align 2
  %8 = and i8 %7, -4
  %9 = or disjoint i8 %8, 1
  store i8 %9, ptr %6, align 2
  %10 = getelementptr inbounds nuw i8, ptr %0, i64 24
  tail call void @_ZN10OpenSubdiv6v3_6_03Vtr8internal11StackBufferINS0_3Bfr10FaceVertexELj4ELb0EE7SetSizeEj(ptr noundef nonnull align 8 dereferenceable(920) %10, i32 noundef %1)
  ret void
}